; Function Attrs: mustprogress nounwind uwtable
define internal fastcc void @_ZN12_GLOBAL__N_121DOCTEST_ANON_CLASS_12D2Ev(ptr nocapture noundef nonnull readonly align 8 dereferenceable(24) %0) unnamed_addr #4 align 2 personality ptr @__gxx_personality_v0 {
  %2 = load ptr, ptr %0, align 8
  %3 = getelementptr inbounds i8, ptr %0, i64 8
  %4 = load ptr, ptr %3, align 8
  %.not4.i.i.i.i.i = icmp eq ptr %2, %4
  br i1 %.not4.i.i.i.i.i, label %_ZSt8_DestroyIPSt10unique_ptrIiSt14default_deleteIiEES3_EvT_S5_RSaIT0_E.exit.i.i, label %.lr.ph.i.i.i.i.i

.lr.ph.i.i.i.i.i:                                 ; preds = %1, %_ZSt8_DestroyISt10unique_ptrIiSt14default_deleteIiEEEvPT_.exit.i.i.i.i.i
  %.05.i.i.i.i.i = phi ptr [ %6, %_ZSt8_DestroyISt10unique_ptrIiSt14default_deleteIiEEEvPT_.exit.i.i.i.i.i ], [ %2, %1 ]
  %5 = load ptr, ptr %.05.i.i.i.i.i, align 8
  %.not.i.i.i.i.i.i.i = icmp eq ptr %5, null
  br i1 %.not.i.i.i.i.i.i.i, label %_ZSt8_DestroyISt10unique_ptrIiSt14default_deleteIiEEEvPT_.exit.i.i.i.i.i, label %_ZNKSt14default_deleteIiEclEPi.exit.i.i.i.i.i.i.i

_ZNKSt14default_deleteIiEclEPi.exit.i.i.i.i.i.i.i: ; preds = %.lr.ph.i.i.i.i.i
  tail call void @_ZdlPvm(ptr noundef nonnull %5, i64 noundef 4) #16
  br label %_ZSt8_DestroyISt10unique_ptrIiSt14default_deleteIiEEEvPT_.exit.i.i.i.i.i

_ZSt8_DestroyISt10unique_ptrIiSt14default_deleteIiEEEvPT_.exit.i.i.i.i.i: ; preds = %_ZNKSt14default_deleteIiEclEPi.exit.i.i.i.i.i.i.i, %.lr.ph.i.i.i.i.i
  store ptr null, ptr %.05.i.i.i.i.i, align 8
  %6 = getelementptr inbounds i8, ptr %.05.i.i.i.i.i, i64 8
  %.not.i.i.i.i.i = icmp eq ptr %6, %4
  br i1 %.not.i.i.i.i.i, label %_ZSt8_DestroyIPSt10unique_ptrIiSt14default_deleteIiEES3_EvT_S5_RSaIT0_E.exitthread-pre-split.i.i, label %.lr.ph.i.i.i.i.i, !llvm.loop !18

_ZSt8_DestroyIPSt10unique_ptrIiSt14default_deleteIiEES3_EvT_S5_RSaIT0_E.exitthread-pre-split.i.i: ; preds = %_ZSt8_DestroyISt10unique_ptrIiSt14default_deleteIiEEEvPT_.exit.i.i.i.i.i
  %.pr.i.i = load ptr, ptr %0, align 8
  br label %_ZSt8_DestroyIPSt10unique_ptrIiSt14default_deleteIiEES3_EvT_S5_RSaIT0_E.exit.i.i

_ZSt8_DestroyIPSt10unique_ptrIiSt14default_deleteIiEES3_EvT_S5_RSaIT0_E.exit.i.i: ; preds = %_ZSt8_DestroyIPSt10unique_ptrIiSt14default_deleteIiEES3_EvT_S5_RSaIT0_E.exitthread-pre-split.i.i, %1
  %7 = phi ptr [ %.pr.i.i, %_ZSt8_DestroyIPSt10unique_ptrIiSt14default_deleteIiEES3_EvT_S5_RSaIT0_E.exitthread-pre-split.i.i ], [ %2, %1 ]
  %.not.i.i.i.i = icmp eq ptr %7, null
  br i1 %.not.i.i.i.i, label %_ZN10MapFixtureD2Ev.exit, label %8

8:                                                ; preds = %_ZSt8_DestroyIPSt10unique_ptrIiSt14default_deleteIiEES3_EvT_S5_RSaIT0_E.exit.i.i
  %9 = getelementptr inbounds i8, ptr %0, i64 16
  %10 = load ptr, ptr %9, align 8
  %11 = ptrtoint ptr %10 to i64
  %12 = ptrtoint ptr %7 to i64
  %13 = sub i64 %11, %12
  tail call void @_ZdlPvm(ptr noundef nonnull %7, i64 noundef %13) #16
  br label %_ZN10MapFixtureD2Ev.exit

_ZN10MapFixtureD2Ev.exit:                         ; preds = %_ZSt8_DestroyIPSt10unique_ptrIiSt14default_deleteIiEES3_EvT_S5_RSaIT0_E.exit.i.i, %8
  ret void
}